target datalayout = "e-m:e-p270:32:32-p271:32:32-p272:64:64-i64:64-i128:128-f80:128-n8:16:32:64-S128"
target triple = "x86_64-pc-linux-gnu"

%"class.google::protobuf::internal::LogMessage" = type { i32, ptr, i32, %"class.std::__cxx11::basic_string" }
%"class.std::__cxx11::basic_string" = type { %"struct.std::__cxx11::basic_string<char>::_Alloc_hider", i64, %union.anon }
%"struct.std::__cxx11::basic_string<char>::_Alloc_hider" = type { ptr }
%union.anon = type { i64, [8 x i8] }
%"class.google::protobuf::internal::LogFinisher" = type { i8 }
%"struct.google::protobuf::Metadata" = type { ptr, ptr }
%"class.google::protobuf::MessageLite" = type { ptr, %"class.google::protobuf::internal::InternalMetadata" }
%"class.google::protobuf::internal::InternalMetadata" = type { i64 }
%"struct.google::protobuf::internal::InternalMetadata::ContainerBase" = type { ptr }

@.str = private unnamed_addr constant [147 x i8] c"generated/home/dtcxzyw/WorkSpace/Projects/compilers/llvm-opt-benchmark/bench/opencv/opencv/3rdparty/protobuf/src/google/protobuf/reflection_ops.cc\00", align 1
@.str.8 = private unnamed_addr constant [123 x i8] c"CHECK failed: Arena::InternalHelper<Message>::GetOwningArena(lhs) != Arena::InternalHelper<Message>::GetOwningArena(rhs): \00", align 1
@.str.9 = private unnamed_addr constant [145 x i8] c"CHECK failed: Arena::InternalHelper<Message>::GetOwningArena(lhs) != nullptr || Arena::InternalHelper<Message>::GetOwningArena(rhs) != nullptr: \00", align 1

; Function Attrs: alwaysinline mustprogress nounwind uwtable
define linkonce_odr hidden noundef zeroext i1 @_ZNK6google8protobuf8internal16InternalMetadata19HasUnknownFieldsTagEv(ptr noundef nonnull align 8 dereferenceable(8) %0) #10 comdat align 2 {
  %2 = alloca ptr, align 8
  store ptr %0, ptr %2, align 8, !tbaa !210
  %3 = load ptr, ptr %2, align 8
  %4 = getelementptr inbounds nuw %"class.google::protobuf::internal::InternalMetadata", ptr %3, i32 0, i32 0
  %5 = load i64, ptr %4, align 8, !tbaa !212
  %6 = and i64 %5, 1
  %7 = icmp ne i64 %6, 0
  ret i1 %7
}

; Function Attrs: mustprogress nounwind uwtable
define linkonce_odr hidden noundef ptr @_ZNK6google8protobuf8internal16InternalMetadata8PtrValueINS0_5ArenaEEEPT_v(ptr noundef nonnull align 8 dereferenceable(8) %0) #7 comdat align 2 {
  %2 = alloca ptr, align 8
  store ptr %0, ptr %2, align 8, !tbaa !210
  %3 = load ptr, ptr %2, align 8
  %4 = getelementptr inbounds nuw %"class.google::protobuf::internal::InternalMetadata", ptr %3, i32 0, i32 0
  %5 = load i64, ptr %4, align 8, !tbaa !212
  %6 = and i64 %5, -4
  %7 = inttoptr i64 %6 to ptr
  ret ptr %7
}

; Function Attrs: mustprogress nounwind uwtable
define linkonce_odr hidden noundef ptr @_ZNK6google8protobuf8internal16InternalMetadata8PtrValueINS2_13ContainerBaseEEEPT_v(ptr noundef nonnull align 8 dereferenceable(8) %0) #7 comdat align 2 {
  %2 = alloca ptr, align 8
  store ptr %0, ptr %2, align 8, !tbaa !210
  %3 = load ptr, ptr %2, align 8
  %4 = getelementptr inbounds nuw %"class.google::protobuf::internal::InternalMetadata", ptr %3, i32 0, i32 0
  %5 = load i64, ptr %4, align 8, !tbaa !212
  %6 = and i64 %5, -4
  %7 = inttoptr i64 %6 to ptr
  ret ptr %7
}

; Function Attrs: alwaysinline mustprogress uwtable
define linkonce_odr hidden noundef zeroext i1 @_ZNK6google8protobuf8internal16InternalMetadata19have_unknown_fieldsEv(ptr noundef nonnull align 8 dereferenceable(8) %0) #17 comdat align 2 {
  %2 = alloca ptr, align 8
  store ptr %0, ptr %2, align 8, !tbaa !210
  %3 = load ptr, ptr %2, align 8
  %4 = call noundef zeroext i1 @_ZNK6google8protobuf8internal16InternalMetadata19HasUnknownFieldsTagEv(ptr noundef nonnull align 8 dereferenceable(8) %3)
  ret i1 %4
}

; Function Attrs: alwaysinline mustprogress uwtable
define linkonce_odr hidden noundef ptr @_ZNK6google8protobuf8internal16InternalMetadata5arenaEv(ptr noundef nonnull align 8 dereferenceable(8) %0) #17 comdat align 2 {
  %2 = alloca ptr, align 8
  %3 = alloca ptr, align 8
  store ptr %0, ptr %3, align 8, !tbaa !210
  %4 = load ptr, ptr %3, align 8
  %5 = call noundef zeroext i1 @_ZNK6google8protobuf8internal16InternalMetadata19have_unknown_fieldsEv(ptr noundef nonnull align 8 dereferenceable(8) %4)
  %6 = zext i1 %5 to i64
  %7 = call i64 @llvm.expect.i64(i64 %6, i64 0)
  %8 = icmp ne i64 %7, 0
  br i1 %8, label %9, label %13

9:                                                ; preds = %1
  %10 = call noundef ptr @_ZNK6google8protobuf8internal16InternalMetadata8PtrValueINS2_13ContainerBaseEEEPT_v(ptr noundef nonnull align 8 dereferenceable(8) %4)
  %11 = getelementptr inbounds nuw %"struct.google::protobuf::internal::InternalMetadata::ContainerBase", ptr %10, i32 0, i32 0
  %12 = load ptr, ptr %11, align 8, !tbaa !213
  store ptr %12, ptr %2, align 8
  br label %15

13:                                               ; preds = %1
  %14 = call noundef ptr @_ZNK6google8protobuf8internal16InternalMetadata8PtrValueINS0_5ArenaEEEPT_v(ptr noundef nonnull align 8 dereferenceable(8) %4)
  store ptr %14, ptr %2, align 8
  br label %15

15:                                               ; preds = %13, %9
  %16 = load ptr, ptr %2, align 8
  ret ptr %16
}

; Function Attrs: alwaysinline mustprogress nounwind uwtable
define linkonce_odr hidden noundef zeroext i1 @_ZNK6google8protobuf8internal16InternalMetadata23HasMessageOwnedArenaTagEv(ptr noundef nonnull align 8 dereferenceable(8) %0) #10 comdat align 2 {
  %2 = alloca ptr, align 8
  store ptr %0, ptr %2, align 8, !tbaa !210
  %3 = load ptr, ptr %2, align 8
  %4 = getelementptr inbounds nuw %"class.google::protobuf::internal::InternalMetadata", ptr %3, i32 0, i32 0
  %5 = load i64, ptr %4, align 8, !tbaa !212
  %6 = and i64 %5, 2
  %7 = icmp ne i64 %6, 0
  ret i1 %7
}

; Function Attrs: alwaysinline mustprogress uwtable
define linkonce_odr hidden noundef ptr @_ZNK6google8protobuf8internal16InternalMetadata12owning_arenaEv(ptr noundef nonnull align 8 dereferenceable(8) %0) #17 comdat align 2 {
  %2 = alloca ptr, align 8
  store ptr %0, ptr %2, align 8, !tbaa !210
  %3 = load ptr, ptr %2, align 8
  %4 = call noundef zeroext i1 @_ZNK6google8protobuf8internal16InternalMetadata23HasMessageOwnedArenaTagEv(ptr noundef nonnull align 8 dereferenceable(8) %3)
  br i1 %4, label %5, label %6

5:                                                ; preds = %1
  br label %8

6:                                                ; preds = %1
  %7 = call noundef ptr @_ZNK6google8protobuf8internal16InternalMetadata5arenaEv(ptr noundef nonnull align 8 dereferenceable(8) %3)
  br label %8

8:                                                ; preds = %6, %5
  %9 = phi ptr [ null, %5 ], [ %7, %6 ]
  ret ptr %9
}

; Function Attrs: mustprogress uwtable
define linkonce_odr hidden noundef ptr @_ZNK6google8protobuf11MessageLite14GetOwningArenaEv(ptr noundef nonnull align 8 dereferenceable(16) %0) #4 comdat align 2 {
  %2 = alloca ptr, align 8
  store ptr %0, ptr %2, align 8, !tbaa !208
  %3 = load ptr, ptr %2, align 8
  %4 = getelementptr inbounds nuw %"class.google::protobuf::MessageLite", ptr %3, i32 0, i32 1
  %5 = call noundef ptr @_ZNK6google8protobuf8internal16InternalMetadata12owning_arenaEv(ptr noundef nonnull align 8 dereferenceable(8) %4)
  ret ptr %5
}

; Function Attrs: mustprogress uwtable
define linkonce_odr hidden noundef ptr @_ZNK6google8protobuf7Message13GetReflectionEv(ptr noundef nonnull align 8 dereferenceable(16) %0) #4 comdat align 2 {
  %2 = alloca ptr, align 8
  %3 = alloca %"struct.google::protobuf::Metadata", align 8
  store ptr %0, ptr %2, align 8, !tbaa !3
  %4 = load ptr, ptr %2, align 8
  call void @llvm.lifetime.start.p0(i64 16, ptr %3) #3
  %5 = load ptr, ptr %4, align 8, !tbaa !22
  %6 = getelementptr inbounds ptr, ptr %5, i64 17
  %7 = load ptr, ptr %6, align 8
  %8 = call { ptr, ptr } %7(ptr noundef nonnull align 8 dereferenceable(16) %4)
  %9 = getelementptr inbounds nuw { ptr, ptr }, ptr %3, i32 0, i32 0
  %10 = extractvalue { ptr, ptr } %8, 0
  store ptr %10, ptr %9, align 8
  %11 = getelementptr inbounds nuw { ptr, ptr }, ptr %3, i32 0, i32 1
  %12 = extractvalue { ptr, ptr } %8, 1
  store ptr %12, ptr %11, align 8
  %13 = getelementptr inbounds nuw %"struct.google::protobuf::Metadata", ptr %3, i32 0, i32 1
  %14 = load ptr, ptr %13, align 8, !tbaa !52
  call void @llvm.lifetime.end.p0(i64 16, ptr %3) #3
  ret ptr %14
}

; Function Attrs: inlinehint mustprogress nounwind uwtable
define linkonce_odr hidden void @_ZSt4swapIPN6google8protobuf7MessageEENSt9enable_ifIXsr6__and_ISt6__not_ISt15__is_tuple_likeIT_EESt21is_move_constructibleIS7_ESt18is_move_assignableIS7_EEE5valueEvE4typeERS7_SG_(ptr noundef nonnull align 8 dereferenceable(8) %0, ptr noundef nonnull align 8 dereferenceable(8) %1) #6 comdat {
  %3 = alloca ptr, align 8
  %4 = alloca ptr, align 8
  %5 = alloca ptr, align 8
  store ptr %0, ptr %3, align 8, !tbaa !96
  store ptr %1, ptr %4, align 8, !tbaa !96
  call void @llvm.lifetime.start.p0(i64 8, ptr %5) #3
  %6 = load ptr, ptr %3, align 8, !tbaa !96
  %7 = load ptr, ptr %6, align 8, !tbaa !3
  store ptr %7, ptr %5, align 8, !tbaa !3
  %8 = load ptr, ptr %4, align 8, !tbaa !96
  %9 = load ptr, ptr %8, align 8, !tbaa !3
  %10 = load ptr, ptr %3, align 8, !tbaa !96
  store ptr %9, ptr %10, align 8, !tbaa !3
  %11 = load ptr, ptr %5, align 8, !tbaa !3
  %12 = load ptr, ptr %4, align 8, !tbaa !96
  store ptr %11, ptr %12, align 8, !tbaa !3
  call void @llvm.lifetime.end.p0(i64 8, ptr %5) #3
  ret void
}

; Function Attrs: mustprogress uwtable
define linkonce_odr hidden noundef ptr @_ZN6google8protobuf5Arena14InternalHelperINS0_7MessageEE14GetOwningArenaEPKS3_(ptr noundef %0) #4 comdat align 2 {
  %2 = alloca ptr, align 8
  store ptr %0, ptr %2, align 8, !tbaa !3
  %3 = load ptr, ptr %2, align 8, !tbaa !3
  %4 = call noundef ptr @_ZNK6google8protobuf11MessageLite14GetOwningArenaEv(ptr noundef nonnull align 8 dereferenceable(16) %3)
  ret ptr %4
}

; Function Attrs: mustprogress uwtable
define hidden void @_ZN6google8protobuf8internal11GenericSwapEPNS0_7MessageES3_(ptr noundef %0, ptr noundef %1) #4 personality ptr @__gxx_personality_v0 {
  %3 = alloca ptr, align 8
  %4 = alloca ptr, align 8
  %5 = alloca %"class.google::protobuf::internal::LogMessage", align 8
  %6 = alloca i1, align 1
  %7 = alloca i1, align 1
  %8 = alloca ptr, align 8
  %9 = alloca i32, align 4
  %10 = alloca %"class.google::protobuf::internal::LogFinisher", align 1
  %11 = alloca %"class.google::protobuf::internal::LogMessage", align 8
  %12 = alloca i1, align 1
  %13 = alloca i1, align 1
  %14 = alloca %"class.google::protobuf::internal::LogFinisher", align 1
  %15 = alloca ptr, align 8
  %16 = alloca ptr, align 8
  store ptr %0, ptr %3, align 8, !tbaa !3
  store ptr %1, ptr %4, align 8, !tbaa !3
  br label %17

17:                                               ; preds = %35, %2
  br i1 false, label %18, label %51

18:                                               ; preds = %17
  %19 = load ptr, ptr %3, align 8, !tbaa !3
  %20 = call noundef ptr @_ZN6google8protobuf5Arena14InternalHelperINS0_7MessageEE14GetOwningArenaEPKS3_(ptr noundef %19)
  %21 = load ptr, ptr %4, align 8, !tbaa !3
  %22 = call noundef ptr @_ZN6google8protobuf5Arena14InternalHelperINS0_7MessageEE14GetOwningArenaEPKS3_(ptr noundef %21)
  %23 = icmp ne ptr %20, %22
  store i1 false, ptr %6, align 1
  store i1 false, ptr %7, align 1
  call void @llvm.lifetime.start.p0(i64 1, ptr %10) #3
  br i1 %23, label %24, label %25

24:                                               ; preds = %18
  br label %29

25:                                               ; preds = %18
  call void @llvm.lifetime.start.p0(i64 56, ptr %5) #3
  store i1 true, ptr %6, align 1
  call void @_ZN6google8protobuf8internal10LogMessageC1ENS0_8LogLevelEPKci(ptr noundef nonnull align 8 dereferenceable(56) %5, i32 noundef 3, ptr noundef @.str, i32 noundef 424)
  store i1 true, ptr %7, align 1
  %26 = invoke noundef nonnull align 8 dereferenceable(56) ptr @_ZN6google8protobuf8internal10LogMessagelsEPKc(ptr noundef nonnull align 8 dereferenceable(56) %5, ptr noundef @.str.8)
          to label %27 unwind label %36

27:                                               ; preds = %25
  invoke void @_ZN6google8protobuf8internal11LogFinisheraSERNS1_10LogMessageE(ptr noundef nonnull align 1 dereferenceable(1) %10, ptr noundef nonnull align 8 dereferenceable(56) %26)
          to label %28 unwind label %40

28:                                               ; preds = %27
  br label %29

29:                                               ; preds = %28, %24
  call void @llvm.lifetime.end.p0(i64 1, ptr %10) #3
  %30 = load i1, ptr %7, align 1
  br i1 %30, label %31, label %32

31:                                               ; preds = %29
  call void @_ZN6google8protobuf8internal10LogMessageD1Ev(ptr noundef nonnull align 8 dereferenceable(56) %5) #3
  br label %32

32:                                               ; preds = %31, %29
  %33 = load i1, ptr %6, align 1
  br i1 %33, label %34, label %35

34:                                               ; preds = %32
  call void @llvm.lifetime.end.p0(i64 56, ptr %5) #3
  br label %35

35:                                               ; preds = %34, %32
  br label %17, !llvm.loop !92

36:                                               ; preds = %25
  %37 = landingpad { ptr, i32 }
          cleanup
  %38 = extractvalue { ptr, i32 } %37, 0
  store ptr %38, ptr %8, align 8
  %39 = extractvalue { ptr, i32 } %37, 1
  store i32 %39, ptr %9, align 4
  br label %44

40:                                               ; preds = %27
  %41 = landingpad { ptr, i32 }
          cleanup
  %42 = extractvalue { ptr, i32 } %41, 0
  store ptr %42, ptr %8, align 8
  %43 = extractvalue { ptr, i32 } %41, 1
  store i32 %43, ptr %9, align 4
  call void @llvm.lifetime.end.p0(i64 1, ptr %10) #3
  br label %44

44:                                               ; preds = %40, %36
  %45 = load i1, ptr %7, align 1
  br i1 %45, label %46, label %47

46:                                               ; preds = %44
  call void @_ZN6google8protobuf8internal10LogMessageD1Ev(ptr noundef nonnull align 8 dereferenceable(56) %5) #3
  br label %47

47:                                               ; preds = %46, %44
  %48 = load i1, ptr %6, align 1
  br i1 %48, label %49, label %50

49:                                               ; preds = %47
  call void @llvm.lifetime.end.p0(i64 56, ptr %5) #3
  br label %50

50:                                               ; preds = %49, %47
  br label %121

51:                                               ; preds = %17
  br label %52

52:                                               ; preds = %72, %51
  br i1 false, label %53, label %88

53:                                               ; preds = %52
  %54 = load ptr, ptr %3, align 8, !tbaa !3
  %55 = call noundef ptr @_ZN6google8protobuf5Arena14InternalHelperINS0_7MessageEE14GetOwningArenaEPKS3_(ptr noundef %54)
  %56 = icmp ne ptr %55, null
  store i1 false, ptr %12, align 1
  store i1 false, ptr %13, align 1
  call void @llvm.lifetime.start.p0(i64 1, ptr %14) #3
  br i1 %56, label %61, label %57

57:                                               ; preds = %53
  %58 = load ptr, ptr %4, align 8, !tbaa !3
  %59 = call noundef ptr @_ZN6google8protobuf5Arena14InternalHelperINS0_7MessageEE14GetOwningArenaEPKS3_(ptr noundef %58)
  %60 = icmp ne ptr %59, null
  br i1 %60, label %61, label %62

61:                                               ; preds = %57, %53
  br label %66

62:                                               ; preds = %57
  call void @llvm.lifetime.start.p0(i64 56, ptr %11) #3
  store i1 true, ptr %12, align 1
  call void @_ZN6google8protobuf8internal10LogMessageC1ENS0_8LogLevelEPKci(ptr noundef nonnull align 8 dereferenceable(56) %11, i32 noundef 3, ptr noundef @.str, i32 noundef 426)
  store i1 true, ptr %13, align 1
  %63 = invoke noundef nonnull align 8 dereferenceable(56) ptr @_ZN6google8protobuf8internal10LogMessagelsEPKc(ptr noundef nonnull align 8 dereferenceable(56) %11, ptr noundef @.str.9)
          to label %64 unwind label %73

64:                                               ; preds = %62
  invoke void @_ZN6google8protobuf8internal11LogFinisheraSERNS1_10LogMessageE(ptr noundef nonnull align 1 dereferenceable(1) %14, ptr noundef nonnull align 8 dereferenceable(56) %63)
          to label %65 unwind label %77

65:                                               ; preds = %64
  br label %66

66:                                               ; preds = %65, %61
  call void @llvm.lifetime.end.p0(i64 1, ptr %14) #3
  %67 = load i1, ptr %13, align 1
  br i1 %67, label %68, label %69

68:                                               ; preds = %66
  call void @_ZN6google8protobuf8internal10LogMessageD1Ev(ptr noundef nonnull align 8 dereferenceable(56) %11) #3
  br label %69

69:                                               ; preds = %68, %66
  %70 = load i1, ptr %12, align 1
  br i1 %70, label %71, label %72

71:                                               ; preds = %69
  call void @llvm.lifetime.end.p0(i64 56, ptr %11) #3
  br label %72

72:                                               ; preds = %71, %69
  br label %52, !llvm.loop !93

73:                                               ; preds = %62
  %74 = landingpad { ptr, i32 }
          cleanup
  %75 = extractvalue { ptr, i32 } %74, 0
  store ptr %75, ptr %8, align 8
  %76 = extractvalue { ptr, i32 } %74, 1
  store i32 %76, ptr %9, align 4
  br label %81

77:                                               ; preds = %64
  %78 = landingpad { ptr, i32 }
          cleanup
  %79 = extractvalue { ptr, i32 } %78, 0
  store ptr %79, ptr %8, align 8
  %80 = extractvalue { ptr, i32 } %78, 1
  store i32 %80, ptr %9, align 4
  call void @llvm.lifetime.end.p0(i64 1, ptr %14) #3
  br label %81

81:                                               ; preds = %77, %73
  %82 = load i1, ptr %13, align 1
  br i1 %82, label %83, label %84

83:                                               ; preds = %81
  call void @_ZN6google8protobuf8internal10LogMessageD1Ev(ptr noundef nonnull align 8 dereferenceable(56) %11) #3
  br label %84

84:                                               ; preds = %83, %81
  %85 = load i1, ptr %12, align 1
  br i1 %85, label %86, label %87

86:                                               ; preds = %84
  call void @llvm.lifetime.end.p0(i64 56, ptr %11) #3
  br label %87

87:                                               ; preds = %86, %84
  br label %121

88:                                               ; preds = %52
  call void @llvm.lifetime.start.p0(i64 8, ptr %15) #3
  %89 = load ptr, ptr %4, align 8, !tbaa !3
  %90 = call noundef ptr @_ZN6google8protobuf5Arena14InternalHelperINS0_7MessageEE14GetOwningArenaEPKS3_(ptr noundef %89)
  store ptr %90, ptr %15, align 8, !tbaa !94
  %91 = load ptr, ptr %15, align 8, !tbaa !94
  %92 = icmp eq ptr %91, null
  br i1 %92, label %93, label %96

93:                                               ; preds = %88
  call void @_ZSt4swapIPN6google8protobuf7MessageEENSt9enable_ifIXsr6__and_ISt6__not_ISt15__is_tuple_likeIT_EESt21is_move_constructibleIS7_ESt18is_move_assignableIS7_EEE5valueEvE4typeERS7_SG_(ptr noundef nonnull align 8 dereferenceable(8) %3, ptr noundef nonnull align 8 dereferenceable(8) %4) #3
  %94 = load ptr, ptr %4, align 8, !tbaa !3
  %95 = call noundef ptr @_ZN6google8protobuf5Arena14InternalHelperINS0_7MessageEE14GetOwningArenaEPKS3_(ptr noundef %94)
  store ptr %95, ptr %15, align 8, !tbaa !94
  br label %96

96:                                               ; preds = %93, %88
  call void @llvm.lifetime.start.p0(i64 8, ptr %16) #3
  %97 = load ptr, ptr %4, align 8, !tbaa !3
  %98 = load ptr, ptr %15, align 8, !tbaa !94
  %99 = load ptr, ptr %97, align 8, !tbaa !22
  %100 = getelementptr inbounds ptr, ptr %99, i64 3
  %101 = load ptr, ptr %100, align 8
  %102 = call noundef ptr %101(ptr noundef nonnull align 8 dereferenceable(16) %97, ptr noundef %98)
  store ptr %102, ptr %16, align 8, !tbaa !3
  %103 = load ptr, ptr %16, align 8, !tbaa !3
  %104 = load ptr, ptr %3, align 8, !tbaa !3
  %105 = load ptr, ptr %103, align 8, !tbaa !22
  %106 = getelementptr inbounds ptr, ptr %105, i64 7
  %107 = load ptr, ptr %106, align 8
  call void %107(ptr noundef nonnull align 8 dereferenceable(16) %103, ptr noundef nonnull align 8 dereferenceable(16) %104)
  %108 = load ptr, ptr %3, align 8, !tbaa !3
  %109 = load ptr, ptr %108, align 8, !tbaa !22
  %110 = getelementptr inbounds ptr, ptr %109, i64 4
  %111 = load ptr, ptr %110, align 8
  call void %111(ptr noundef nonnull align 8 dereferenceable(16) %108)
  %112 = load ptr, ptr %3, align 8, !tbaa !3
  %113 = load ptr, ptr %4, align 8, !tbaa !3
  %114 = load ptr, ptr %112, align 8, !tbaa !22
  %115 = getelementptr inbounds ptr, ptr %114, i64 7
  %116 = load ptr, ptr %115, align 8
  call void %116(ptr noundef nonnull align 8 dereferenceable(16) %112, ptr noundef nonnull align 8 dereferenceable(16) %113)
  %117 = load ptr, ptr %4, align 8, !tbaa !3
  %118 = call noundef ptr @_ZNK6google8protobuf7Message13GetReflectionEv(ptr noundef nonnull align 8 dereferenceable(16) %117)
  %119 = load ptr, ptr %16, align 8, !tbaa !3
  %120 = load ptr, ptr %4, align 8, !tbaa !3
  call void @_ZNK6google8protobuf10Reflection4SwapEPNS0_7MessageES3_(ptr noundef nonnull align 8 dereferenceable(96) %118, ptr noundef %119, ptr noundef %120)
  call void @llvm.lifetime.end.p0(i64 8, ptr %16) #3
  call void @llvm.lifetime.end.p0(i64 8, ptr %15) #3
  ret void

121:                                              ; preds = %87, %50
  %122 = load ptr, ptr %8, align 8
  %123 = load i32, ptr %9, align 4
  %124 = insertvalue { ptr, i32 } poison, ptr %122, 0
  %125 = insertvalue { ptr, i32 } %124, i32 %123, 1
  resume { ptr, i32 } %125
}