; Function Attrs: mustprogress uwtable
define hidden void @_ZN6google8protobuf8internal11GenericSwapEPNS0_7MessageES3_(ptr noundef %0, ptr noundef %1) local_unnamed_addr #3 personality ptr @__gxx_personality_v0 {
  %3 = getelementptr inbounds nuw i8, ptr %1, i64 8
  %4 = load i64, ptr %3, align 8, !tbaa !104
  %5 = and i64 %4, 2
  %.not.i.i = icmp eq i64 %5, 0
  br i1 %.not.i.i, label %6, label %_ZN6google8protobuf5Arena14InternalHelperINS0_7MessageEE14GetOwningArenaEPKS3_.exit.thread

6:                                                ; preds = %2
  %7 = and i64 %4, 1
  %.not1.i.i = icmp eq i64 %7, 0
  br i1 %.not1.i.i, label %12, label %8, !prof !105

8:                                                ; preds = %6
  %9 = and i64 %4, -4
  %10 = inttoptr i64 %9 to ptr
  %11 = load ptr, ptr %10, align 8, !tbaa !106
  br label %_ZN6google8protobuf5Arena14InternalHelperINS0_7MessageEE14GetOwningArenaEPKS3_.exit

12:                                               ; preds = %6
  %13 = inttoptr i64 %4 to ptr
  br label %_ZN6google8protobuf5Arena14InternalHelperINS0_7MessageEE14GetOwningArenaEPKS3_.exit

_ZN6google8protobuf5Arena14InternalHelperINS0_7MessageEE14GetOwningArenaEPKS3_.exit: ; preds = %8, %12
  %14 = phi ptr [ %11, %8 ], [ %13, %12 ]
  %15 = icmp eq ptr %14, null
  br i1 %15, label %_ZN6google8protobuf5Arena14InternalHelperINS0_7MessageEE14GetOwningArenaEPKS3_.exit.thread, label %_ZN6google8protobuf5Arena14InternalHelperINS0_7MessageEE14GetOwningArenaEPKS3_.exit7

_ZN6google8protobuf5Arena14InternalHelperINS0_7MessageEE14GetOwningArenaEPKS3_.exit.thread: ; preds = %2, %_ZN6google8protobuf5Arena14InternalHelperINS0_7MessageEE14GetOwningArenaEPKS3_.exit
  %16 = getelementptr inbounds nuw i8, ptr %0, i64 8
  %17 = load i64, ptr %16, align 8, !tbaa !104
  %18 = and i64 %17, 2
  %.not.i.i5 = icmp eq i64 %18, 0
  br i1 %.not.i.i5, label %19, label %_ZN6google8protobuf5Arena14InternalHelperINS0_7MessageEE14GetOwningArenaEPKS3_.exit7

19:                                               ; preds = %_ZN6google8protobuf5Arena14InternalHelperINS0_7MessageEE14GetOwningArenaEPKS3_.exit.thread
  %20 = and i64 %17, 1
  %.not1.i.i6 = icmp eq i64 %20, 0
  br i1 %.not1.i.i6, label %25, label %21, !prof !105

21:                                               ; preds = %19
  %22 = and i64 %17, -4
  %23 = inttoptr i64 %22 to ptr
  %24 = load ptr, ptr %23, align 8, !tbaa !106
  br label %_ZN6google8protobuf5Arena14InternalHelperINS0_7MessageEE14GetOwningArenaEPKS3_.exit7

25:                                               ; preds = %19
  %26 = inttoptr i64 %17 to ptr
  br label %_ZN6google8protobuf5Arena14InternalHelperINS0_7MessageEE14GetOwningArenaEPKS3_.exit7

_ZN6google8protobuf5Arena14InternalHelperINS0_7MessageEE14GetOwningArenaEPKS3_.exit7: ; preds = %25, %21, %_ZN6google8protobuf5Arena14InternalHelperINS0_7MessageEE14GetOwningArenaEPKS3_.exit.thread, %_ZN6google8protobuf5Arena14InternalHelperINS0_7MessageEE14GetOwningArenaEPKS3_.exit
  %.018 = phi ptr [ %0, %_ZN6google8protobuf5Arena14InternalHelperINS0_7MessageEE14GetOwningArenaEPKS3_.exit ], [ %1, %_ZN6google8protobuf5Arena14InternalHelperINS0_7MessageEE14GetOwningArenaEPKS3_.exit.thread ], [ %1, %21 ], [ %1, %25 ]
  %.017 = phi ptr [ %1, %_ZN6google8protobuf5Arena14InternalHelperINS0_7MessageEE14GetOwningArenaEPKS3_.exit ], [ %0, %_ZN6google8protobuf5Arena14InternalHelperINS0_7MessageEE14GetOwningArenaEPKS3_.exit.thread ], [ %0, %21 ], [ %0, %25 ]
  %.0 = phi ptr [ %14, %_ZN6google8protobuf5Arena14InternalHelperINS0_7MessageEE14GetOwningArenaEPKS3_.exit ], [ null, %_ZN6google8protobuf5Arena14InternalHelperINS0_7MessageEE14GetOwningArenaEPKS3_.exit.thread ], [ %24, %21 ], [ %26, %25 ]
  %27 = load ptr, ptr %.017, align 8, !tbaa !15
  %28 = getelementptr inbounds nuw i8, ptr %27, i64 24
  %29 = load ptr, ptr %28, align 8
  %30 = tail call noundef ptr %29(ptr noundef nonnull align 8 dereferenceable(16) %.017, ptr noundef %.0)
  %31 = load ptr, ptr %30, align 8, !tbaa !15
  %32 = getelementptr inbounds nuw i8, ptr %31, i64 56
  %33 = load ptr, ptr %32, align 8
  tail call void %33(ptr noundef nonnull align 8 dereferenceable(16) %30, ptr noundef nonnull align 8 dereferenceable(16) %.018)
  %34 = load ptr, ptr %.018, align 8, !tbaa !15
  %35 = getelementptr inbounds nuw i8, ptr %34, i64 32
  %36 = load ptr, ptr %35, align 8
  tail call void %36(ptr noundef nonnull align 8 dereferenceable(16) %.018)
  %37 = load ptr, ptr %.018, align 8, !tbaa !15
  %38 = getelementptr inbounds nuw i8, ptr %37, i64 56
  %39 = load ptr, ptr %38, align 8
  tail call void %39(ptr noundef nonnull align 8 dereferenceable(16) %.018, ptr noundef nonnull align 8 dereferenceable(16) %.017)
  %40 = load ptr, ptr %.017, align 8, !tbaa !15
  %41 = getelementptr inbounds nuw i8, ptr %40, i64 136
  %42 = load ptr, ptr %41, align 8
  %43 = tail call { ptr, ptr } %42(ptr noundef nonnull align 8 dereferenceable(16) %.017)
  %44 = extractvalue { ptr, ptr } %43, 1
  tail call void @_ZNK6google8protobuf10Reflection4SwapEPNS0_7MessageES3_(ptr noundef nonnull align 8 dereferenceable(96) %44, ptr noundef nonnull %30, ptr noundef nonnull %.017)
  ret void
}